target datalayout = "e-m:e-p270:32:32-p271:32:32-p272:64:64-i64:64-i128:128-f80:128-n8:16:32:64-S128"
target triple = "x86_64-pc-linux-gnu"

%struct.darktable_t = type { %struct.dt_codepath_t, i32, i32, ptr, ptr, ptr, ptr, ptr, ptr, ptr, ptr, ptr, ptr, ptr, ptr, ptr, ptr, ptr, ptr, ptr, ptr, ptr, ptr, ptr, ptr, ptr, ptr, ptr, ptr, ptr, [64 x %struct.dt_pthread_mutex_t], %struct.dt_pthread_mutex_t, %struct.dt_pthread_mutex_t, %struct.dt_pthread_mutex_t, %struct.dt_pthread_mutex_t, %struct.dt_pthread_mutex_t, ptr, ptr, ptr, ptr, ptr, ptr, ptr, ptr, ptr, ptr, ptr, ptr, ptr, %struct.dt_lua_state_t, ptr, double, ptr, i32, [47 x i32], i32, i32, ptr, ptr, %struct.dt_sys_resources_t, %struct.dt_backthumb_t, %struct.dt_gimp_t }
%struct.dt_codepath_t = type { i8, [3 x i8] }
%struct.dt_pthread_mutex_t = type { %union.pthread_mutex_t }
%union.pthread_mutex_t = type { %struct.__pthread_mutex_s }
%struct.__pthread_mutex_s = type { i32, i32, i32, i32, i32, i16, i16, %struct.__pthread_internal_list }
%struct.__pthread_internal_list = type { ptr, ptr }
%struct.dt_lua_state_t = type { i32 }
%struct.dt_sys_resources_t = type { i64, i64, ptr, ptr, i32 }
%struct.dt_backthumb_t = type { double, double, i32, i32, i32, i32 }
%struct.dt_gimp_t = type { i32, ptr, ptr, i32, i32 }
%struct.dt_lib_module_info_t = type { ptr, i32, ptr, i32, ptr }

@darktable = external global %struct.darktable_t, align 8
@.str.2 = private unnamed_addr constant [41 x i8] c"[sql] %s:%d, function %s(): prepare \22%s\22\00", align 1
@.str.3 = private unnamed_addr constant [112 x i8] c"generated/home/dtcxzyw/WorkSpace/Projects/compilers/llvm-opt-benchmark/bench/darktable/darktable/src/libs/lib.c\00", align 1
@stderr = external global ptr, align 8
@.str.5 = private unnamed_addr constant [53 x i8] c"sqlite3 error: %s:%d, function %s(), query \22%s\22: %s\0A\00", align 1
@.str.6 = private unnamed_addr constant [41 x i8] c"sqlite3 error: %s:%d, function %s(): %s\0A\00", align 1
@.str.21 = private unnamed_addr constant [40 x i8] c"[signal] raise %s; %s:%d, function %s()\00", align 1
@.str.22 = private unnamed_addr constant [26 x i8] c"DT_SIGNAL_PRESETS_CHANGED\00", align 1
@.str.58 = private unnamed_addr constant [15 x i8] c"dt-preset-name\00", align 1
@.str.70 = private unnamed_addr constant [51 x i8] c"plugins/lighttable/preset/ask_before_delete_preset\00", align 1
@.str.75 = private unnamed_addr constant [15 x i8] c"update preset?\00", align 1
@.str.76 = private unnamed_addr constant [46 x i8] c"do you really want to update the preset `%s'?\00", align 1
@__FUNCTION__.menuitem_update_preset = private unnamed_addr constant [23 x i8] c"menuitem_update_preset\00", align 1
@.str.77 = private unnamed_addr constant [83 x i8] c"UPDATE data.presets SET op_version=?2, op_params=?3 WHERE name=?4 AND operation=?1\00", align 1

; Function Attrs: nounwind uwtable
define internal void @menuitem_update_preset(ptr noundef %0, ptr noundef %1) #0 {
  %3 = alloca ptr, align 8
  %4 = alloca ptr, align 8
  %5 = alloca ptr, align 8
  %6 = alloca ptr, align 8
  %7 = alloca i32, align 4
  %8 = alloca i32, align 4
  %9 = alloca i32, align 4
  %10 = alloca i32, align 4
  %11 = alloca i32, align 4
  store ptr %0, ptr %3, align 8, !tbaa !222
  store ptr %1, ptr %4, align 8, !tbaa !66
  call void @llvm.lifetime.start.p0(i64 8, ptr %5) #12
  %12 = load ptr, ptr %3, align 8, !tbaa !222
  %13 = call ptr @g_type_check_instance_cast(ptr noundef %12, i64 noundef 80)
  %14 = call ptr @g_object_get_data(ptr noundef %13, ptr noundef @.str.58)
  store ptr %14, ptr %5, align 8, !tbaa !63
  %15 = call i32 @dt_conf_get_bool(ptr noundef @.str.70)
  %16 = icmp ne i32 %15, 0
  br i1 %16, label %17, label %23

17:                                               ; preds = %2
  %18 = call ptr @dcgettext(ptr noundef null, ptr noundef @.str.75, i32 noundef 5) #12
  %19 = call ptr @dcgettext(ptr noundef null, ptr noundef @.str.76, i32 noundef 5) #12
  %20 = load ptr, ptr %5, align 8, !tbaa !63
  %21 = call i32 (ptr, ptr, ...) @dt_gui_show_yes_no_dialog(ptr noundef %18, ptr noundef %19, ptr noundef %20)
  %22 = icmp ne i32 %21, 0
  br i1 %22, label %23, label %142

23:                                               ; preds = %17, %2
  call void @llvm.lifetime.start.p0(i64 8, ptr %6) #12
  br label %24

24:                                               ; preds = %23
  br label %25

25:                                               ; preds = %24
  %26 = load i32, ptr getelementptr inbounds nuw (%struct.darktable_t, ptr @darktable, i32 0, i32 2), align 8, !tbaa !21
  %27 = and i32 256, %26
  %28 = icmp ne i32 %27, 0
  br i1 %28, label %29, label %35

29:                                               ; preds = %25
  %30 = load i32, ptr getelementptr inbounds nuw (%struct.darktable_t, ptr @darktable, i32 0, i32 2), align 8, !tbaa !21
  %31 = xor i32 %30, -1
  %32 = and i32 0, %31
  %33 = icmp ne i32 %32, 0
  br i1 %33, label %35, label %34

34:                                               ; preds = %29
  call void (ptr, ...) @dt_print_ext(ptr noundef @.str.2, ptr noundef @.str.3, i32 noundef 164, ptr noundef @__FUNCTION__.menuitem_update_preset, ptr noundef @.str.77)
  br label %35

35:                                               ; preds = %34, %29, %25
  br label %36

36:                                               ; preds = %35
  br label %37

37:                                               ; preds = %36
  call void @llvm.lifetime.start.p0(i64 4, ptr %7) #12
  %38 = load ptr, ptr getelementptr inbounds nuw (%struct.darktable_t, ptr @darktable, i32 0, i32 18), align 8, !tbaa !68
  %39 = call ptr @dt_database_get(ptr noundef %38)
  %40 = call i32 @sqlite3_prepare_v2(ptr noundef %39, ptr noundef @.str.77, i32 noundef -1, ptr noundef %6, ptr noundef null)
  store i32 %40, ptr %7, align 4, !tbaa !62
  %41 = load i32, ptr %7, align 4, !tbaa !62
  %42 = icmp ne i32 %41, 0
  br i1 %42, label %43, label %49

43:                                               ; preds = %37
  %44 = load ptr, ptr @stderr, align 8, !tbaa !69
  %45 = load ptr, ptr getelementptr inbounds nuw (%struct.darktable_t, ptr @darktable, i32 0, i32 18), align 8, !tbaa !68
  %46 = call ptr @dt_database_get(ptr noundef %45)
  %47 = call ptr @sqlite3_errmsg(ptr noundef %46)
  %48 = call i32 (ptr, ptr, ...) @fprintf(ptr noundef %44, ptr noundef @.str.5, ptr noundef @.str.3, i32 noundef 164, ptr noundef @__FUNCTION__.menuitem_update_preset, ptr noundef @.str.77, ptr noundef %47) #12
  br label %49

49:                                               ; preds = %43, %37
  call void @llvm.lifetime.end.p0(i64 4, ptr %7) #12
  br label %50

50:                                               ; preds = %49
  br label %51

51:                                               ; preds = %50
  call void @llvm.lifetime.start.p0(i64 4, ptr %8) #12
  %52 = load ptr, ptr %6, align 8, !tbaa !71
  %53 = load ptr, ptr %4, align 8, !tbaa !66
  %54 = getelementptr inbounds nuw %struct.dt_lib_module_info_t, ptr %53, i32 0, i32 0
  %55 = load ptr, ptr %54, align 8, !tbaa !73
  %56 = call i32 @sqlite3_bind_text(ptr noundef %52, i32 noundef 1, ptr noundef %55, i32 noundef -1, ptr noundef inttoptr (i64 -1 to ptr))
  store i32 %56, ptr %8, align 4, !tbaa !62
  %57 = load i32, ptr %8, align 4, !tbaa !62
  %58 = icmp ne i32 %57, 0
  br i1 %58, label %59, label %65

59:                                               ; preds = %51
  %60 = load ptr, ptr @stderr, align 8, !tbaa !69
  %61 = load ptr, ptr getelementptr inbounds nuw (%struct.darktable_t, ptr @darktable, i32 0, i32 18), align 8, !tbaa !68
  %62 = call ptr @dt_database_get(ptr noundef %61)
  %63 = call ptr @sqlite3_errmsg(ptr noundef %62)
  %64 = call i32 (ptr, ptr, ...) @fprintf(ptr noundef %60, ptr noundef @.str.6, ptr noundef @.str.3, i32 noundef 168, ptr noundef @__FUNCTION__.menuitem_update_preset, ptr noundef %63) #12
  br label %65

65:                                               ; preds = %59, %51
  call void @llvm.lifetime.end.p0(i64 4, ptr %8) #12
  call void @llvm.lifetime.start.p0(i64 4, ptr %9) #12
  %66 = load ptr, ptr %6, align 8, !tbaa !71
  %67 = load ptr, ptr %4, align 8, !tbaa !66
  %68 = getelementptr inbounds nuw %struct.dt_lib_module_info_t, ptr %67, i32 0, i32 1
  %69 = load i32, ptr %68, align 8, !tbaa !75
  %70 = call i32 @sqlite3_bind_int(ptr noundef %66, i32 noundef 2, i32 noundef %69)
  store i32 %70, ptr %9, align 4, !tbaa !62
  %71 = load i32, ptr %9, align 4, !tbaa !62
  %72 = icmp ne i32 %71, 0
  br i1 %72, label %73, label %79

73:                                               ; preds = %65
  %74 = load ptr, ptr @stderr, align 8, !tbaa !69
  %75 = load ptr, ptr getelementptr inbounds nuw (%struct.darktable_t, ptr @darktable, i32 0, i32 18), align 8, !tbaa !68
  %76 = call ptr @dt_database_get(ptr noundef %75)
  %77 = call ptr @sqlite3_errmsg(ptr noundef %76)
  %78 = call i32 (ptr, ptr, ...) @fprintf(ptr noundef %74, ptr noundef @.str.6, ptr noundef @.str.3, i32 noundef 169, ptr noundef @__FUNCTION__.menuitem_update_preset, ptr noundef %77) #12
  br label %79

79:                                               ; preds = %73, %65
  call void @llvm.lifetime.end.p0(i64 4, ptr %9) #12
  call void @llvm.lifetime.start.p0(i64 4, ptr %10) #12
  %80 = load ptr, ptr %6, align 8, !tbaa !71
  %81 = load ptr, ptr %4, align 8, !tbaa !66
  %82 = getelementptr inbounds nuw %struct.dt_lib_module_info_t, ptr %81, i32 0, i32 2
  %83 = load ptr, ptr %82, align 8, !tbaa !78
  %84 = load ptr, ptr %4, align 8, !tbaa !66
  %85 = getelementptr inbounds nuw %struct.dt_lib_module_info_t, ptr %84, i32 0, i32 3
  %86 = load i32, ptr %85, align 8, !tbaa !77
  %87 = call i32 @sqlite3_bind_blob(ptr noundef %80, i32 noundef 3, ptr noundef %83, i32 noundef %86, ptr noundef inttoptr (i64 -1 to ptr))
  store i32 %87, ptr %10, align 4, !tbaa !62
  %88 = load i32, ptr %10, align 4, !tbaa !62
  %89 = icmp ne i32 %88, 0
  br i1 %89, label %90, label %96

90:                                               ; preds = %79
  %91 = load ptr, ptr @stderr, align 8, !tbaa !69
  %92 = load ptr, ptr getelementptr inbounds nuw (%struct.darktable_t, ptr @darktable, i32 0, i32 18), align 8, !tbaa !68
  %93 = call ptr @dt_database_get(ptr noundef %92)
  %94 = call ptr @sqlite3_errmsg(ptr noundef %93)
  %95 = call i32 (ptr, ptr, ...) @fprintf(ptr noundef %91, ptr noundef @.str.6, ptr noundef @.str.3, i32 noundef 171, ptr noundef @__FUNCTION__.menuitem_update_preset, ptr noundef %94) #12
  br label %96

96:                                               ; preds = %90, %79
  call void @llvm.lifetime.end.p0(i64 4, ptr %10) #12
  call void @llvm.lifetime.start.p0(i64 4, ptr %11) #12
  %97 = load ptr, ptr %6, align 8, !tbaa !71
  %98 = load ptr, ptr %5, align 8, !tbaa !63
  %99 = call i32 @sqlite3_bind_text(ptr noundef %97, i32 noundef 4, ptr noundef %98, i32 noundef -1, ptr noundef inttoptr (i64 -1 to ptr))
  store i32 %99, ptr %11, align 4, !tbaa !62
  %100 = load i32, ptr %11, align 4, !tbaa !62
  %101 = icmp ne i32 %100, 0
  br i1 %101, label %102, label %108

102:                                              ; preds = %96
  %103 = load ptr, ptr @stderr, align 8, !tbaa !69
  %104 = load ptr, ptr getelementptr inbounds nuw (%struct.darktable_t, ptr @darktable, i32 0, i32 18), align 8, !tbaa !68
  %105 = call ptr @dt_database_get(ptr noundef %104)
  %106 = call ptr @sqlite3_errmsg(ptr noundef %105)
  %107 = call i32 (ptr, ptr, ...) @fprintf(ptr noundef %103, ptr noundef @.str.6, ptr noundef @.str.3, i32 noundef 172, ptr noundef @__FUNCTION__.menuitem_update_preset, ptr noundef %106) #12
  br label %108

108:                                              ; preds = %102, %96
  call void @llvm.lifetime.end.p0(i64 4, ptr %11) #12
  %109 = load ptr, ptr %6, align 8, !tbaa !71
  %110 = call i32 @sqlite3_step(ptr noundef %109)
  %111 = load ptr, ptr %6, align 8, !tbaa !71
  %112 = call i32 @sqlite3_finalize(ptr noundef %111)
  br label %113

113:                                              ; preds = %108
  %114 = load i32, ptr getelementptr inbounds nuw (%struct.darktable_t, ptr @darktable, i32 0, i32 53), align 8, !tbaa !100
  %115 = and i32 %114, 1
  %116 = icmp ne i32 %115, 0
  br i1 %116, label %117, label %134

117:                                              ; preds = %113
  %118 = load i32, ptr getelementptr inbounds ([47 x i32], ptr getelementptr inbounds nuw (%struct.darktable_t, ptr @darktable, i32 0, i32 54), i64 0, i64 18), align 4, !tbaa !62
  %119 = icmp ne i32 %118, 0
  br i1 %119, label %120, label %134

120:                                              ; preds = %117
  br label %121

121:                                              ; preds = %120
  %122 = load i32, ptr getelementptr inbounds nuw (%struct.darktable_t, ptr @darktable, i32 0, i32 2), align 8, !tbaa !21
  %123 = and i32 1048576, %122
  %124 = icmp ne i32 %123, 0
  br i1 %124, label %125, label %131

125:                                              ; preds = %121
  %126 = load i32, ptr getelementptr inbounds nuw (%struct.darktable_t, ptr @darktable, i32 0, i32 2), align 8, !tbaa !21
  %127 = xor i32 %126, -1
  %128 = and i32 0, %127
  %129 = icmp ne i32 %128, 0
  br i1 %129, label %131, label %130

130:                                              ; preds = %125
  call void (ptr, ...) @dt_print_ext(ptr noundef @.str.21, ptr noundef @.str.22, ptr noundef @.str.3, i32 noundef 176, ptr noundef @__FUNCTION__.menuitem_update_preset)
  br label %131

131:                                              ; preds = %130, %125, %121
  br label %132

132:                                              ; preds = %131
  br label %133

133:                                              ; preds = %132
  br label %134

134:                                              ; preds = %133, %117, %113
  %135 = load ptr, ptr getelementptr inbounds nuw (%struct.darktable_t, ptr @darktable, i32 0, i32 13), align 8, !tbaa !101
  %136 = load ptr, ptr %4, align 8, !tbaa !66
  %137 = getelementptr inbounds nuw %struct.dt_lib_module_info_t, ptr %136, i32 0, i32 0
  %138 = load ptr, ptr %137, align 8, !tbaa !73
  %139 = call noalias ptr @g_strdup(ptr noundef %138)
  call void (ptr, i32, ...) @dt_control_signal_raise(ptr noundef %135, i32 noundef 18, ptr noundef %139)
  br label %140

140:                                              ; preds = %134
  br label %141

141:                                              ; preds = %140
  call void @llvm.lifetime.end.p0(i64 8, ptr %6) #12
  br label %142

142:                                              ; preds = %141, %17
  call void @llvm.lifetime.end.p0(i64 8, ptr %5) #12
  ret void
}