; Function Attrs: nounwind uwtable
define internal void @menuitem_update_preset(ptr noundef %0, ptr noundef readonly captures(none) %1) #0 {
  %3 = alloca ptr, align 8
  %4 = tail call ptr @g_type_check_instance_cast(ptr noundef %0, i64 noundef 80) #19
  %5 = tail call ptr @g_object_get_data(ptr noundef %4, ptr noundef nonnull @.str.58) #19
  %6 = tail call i32 @dt_conf_get_bool(ptr noundef nonnull @.str.70) #19
  %.not = icmp eq i32 %6, 0
  br i1 %.not, label %11, label %7

7:                                                ; preds = %2
  %8 = tail call ptr @dcgettext(ptr noundef null, ptr noundef nonnull @.str.75, i32 noundef 5) #19
  %9 = tail call ptr @dcgettext(ptr noundef null, ptr noundef nonnull @.str.76, i32 noundef 5) #19
  %10 = tail call i32 (ptr, ptr, ...) @dt_gui_show_yes_no_dialog(ptr noundef %8, ptr noundef %9, ptr noundef %5) #19
  %.not13 = icmp eq i32 %10, 0
  br i1 %.not13, label %86, label %11

11:                                               ; preds = %7, %2
  call void @llvm.lifetime.start.p0(i64 8, ptr nonnull %3) #19
  %12 = load i32, ptr getelementptr inbounds nuw (i8, ptr @darktable, i64 8), align 8, !tbaa !59
  %13 = and i32 %12, 256
  %.not14 = icmp eq i32 %13, 0
  br i1 %.not14, label %15, label %14

14:                                               ; preds = %11
  tail call void (ptr, ...) @dt_print_ext(ptr noundef nonnull @.str.2, ptr noundef nonnull @.str.3, i32 noundef 164, ptr noundef nonnull @__FUNCTION__.menuitem_update_preset, ptr noundef nonnull @.str.77) #19
  br label %15

15:                                               ; preds = %14, %11
  %16 = load ptr, ptr getelementptr inbounds nuw (i8, ptr @darktable, i64 136), align 8, !tbaa !60
  %17 = tail call ptr @dt_database_get(ptr noundef %16) #19
  %18 = call i32 @sqlite3_prepare_v2(ptr noundef %17, ptr noundef nonnull @.str.77, i32 noundef -1, ptr noundef nonnull %3, ptr noundef null) #19
  %.not15 = icmp eq i32 %18, 0
  br i1 %.not15, label %25, label %19

19:                                               ; preds = %15
  %20 = load ptr, ptr @stderr, align 8, !tbaa !61
  %21 = load ptr, ptr getelementptr inbounds nuw (i8, ptr @darktable, i64 136), align 8, !tbaa !60
  %22 = call ptr @dt_database_get(ptr noundef %21) #19
  %23 = call ptr @sqlite3_errmsg(ptr noundef %22) #19
  %24 = call i32 (ptr, ptr, ...) @fprintf(ptr noundef %20, ptr noundef nonnull @.str.5, ptr noundef nonnull @.str.3, i32 noundef 164, ptr noundef nonnull @__FUNCTION__.menuitem_update_preset, ptr noundef nonnull @.str.77, ptr noundef %23) #20
  br label %25

25:                                               ; preds = %19, %15
  %26 = load ptr, ptr %3, align 8, !tbaa !63
  %27 = load ptr, ptr %1, align 8, !tbaa !65
  %28 = call i32 @sqlite3_bind_text(ptr noundef %26, i32 noundef 1, ptr noundef %27, i32 noundef -1, ptr noundef nonnull inttoptr (i64 -1 to ptr)) #19
  %.not16 = icmp eq i32 %28, 0
  br i1 %.not16, label %35, label %29

29:                                               ; preds = %25
  %30 = load ptr, ptr @stderr, align 8, !tbaa !61
  %31 = load ptr, ptr getelementptr inbounds nuw (i8, ptr @darktable, i64 136), align 8, !tbaa !60
  %32 = call ptr @dt_database_get(ptr noundef %31) #19
  %33 = call ptr @sqlite3_errmsg(ptr noundef %32) #19
  %34 = call i32 (ptr, ptr, ...) @fprintf(ptr noundef %30, ptr noundef nonnull @.str.6, ptr noundef nonnull @.str.3, i32 noundef 168, ptr noundef nonnull @__FUNCTION__.menuitem_update_preset, ptr noundef %33) #20
  br label %35

35:                                               ; preds = %29, %25
  %36 = load ptr, ptr %3, align 8, !tbaa !63
  %37 = getelementptr inbounds nuw i8, ptr %1, i64 8
  %38 = load i32, ptr %37, align 8, !tbaa !68
  %39 = call i32 @sqlite3_bind_int(ptr noundef %36, i32 noundef 2, i32 noundef %38) #19
  %.not17 = icmp eq i32 %39, 0
  br i1 %.not17, label %46, label %40

40:                                               ; preds = %35
  %41 = load ptr, ptr @stderr, align 8, !tbaa !61
  %42 = load ptr, ptr getelementptr inbounds nuw (i8, ptr @darktable, i64 136), align 8, !tbaa !60
  %43 = call ptr @dt_database_get(ptr noundef %42) #19
  %44 = call ptr @sqlite3_errmsg(ptr noundef %43) #19
  %45 = call i32 (ptr, ptr, ...) @fprintf(ptr noundef %41, ptr noundef nonnull @.str.6, ptr noundef nonnull @.str.3, i32 noundef 169, ptr noundef nonnull @__FUNCTION__.menuitem_update_preset, ptr noundef %44) #20
  br label %46

46:                                               ; preds = %40, %35
  %47 = load ptr, ptr %3, align 8, !tbaa !63
  %48 = getelementptr inbounds nuw i8, ptr %1, i64 16
  %49 = load ptr, ptr %48, align 8, !tbaa !70
  %50 = getelementptr inbounds nuw i8, ptr %1, i64 24
  %51 = load i32, ptr %50, align 8, !tbaa !69
  %52 = call i32 @sqlite3_bind_blob(ptr noundef %47, i32 noundef 3, ptr noundef %49, i32 noundef %51, ptr noundef nonnull inttoptr (i64 -1 to ptr)) #19
  %.not18 = icmp eq i32 %52, 0
  br i1 %.not18, label %59, label %53

53:                                               ; preds = %46
  %54 = load ptr, ptr @stderr, align 8, !tbaa !61
  %55 = load ptr, ptr getelementptr inbounds nuw (i8, ptr @darktable, i64 136), align 8, !tbaa !60
  %56 = call ptr @dt_database_get(ptr noundef %55) #19
  %57 = call ptr @sqlite3_errmsg(ptr noundef %56) #19
  %58 = call i32 (ptr, ptr, ...) @fprintf(ptr noundef %54, ptr noundef nonnull @.str.6, ptr noundef nonnull @.str.3, i32 noundef 171, ptr noundef nonnull @__FUNCTION__.menuitem_update_preset, ptr noundef %57) #20
  br label %59

59:                                               ; preds = %53, %46
  %60 = load ptr, ptr %3, align 8, !tbaa !63
  %61 = call i32 @sqlite3_bind_text(ptr noundef %60, i32 noundef 4, ptr noundef %5, i32 noundef -1, ptr noundef nonnull inttoptr (i64 -1 to ptr)) #19
  %.not19 = icmp eq i32 %61, 0
  br i1 %.not19, label %68, label %62

62:                                               ; preds = %59
  %63 = load ptr, ptr @stderr, align 8, !tbaa !61
  %64 = load ptr, ptr getelementptr inbounds nuw (i8, ptr @darktable, i64 136), align 8, !tbaa !60
  %65 = call ptr @dt_database_get(ptr noundef %64) #19
  %66 = call ptr @sqlite3_errmsg(ptr noundef %65) #19
  %67 = call i32 (ptr, ptr, ...) @fprintf(ptr noundef %63, ptr noundef nonnull @.str.6, ptr noundef nonnull @.str.3, i32 noundef 172, ptr noundef nonnull @__FUNCTION__.menuitem_update_preset, ptr noundef %66) #20
  br label %68

68:                                               ; preds = %62, %59
  %69 = load ptr, ptr %3, align 8, !tbaa !63
  %70 = call i32 @sqlite3_step(ptr noundef %69) #19
  %71 = load ptr, ptr %3, align 8, !tbaa !63
  %72 = call i32 @sqlite3_finalize(ptr noundef %71) #19
  %73 = load i32, ptr getelementptr inbounds nuw (i8, ptr @darktable, i64 3128), align 8, !tbaa !81
  %74 = and i32 %73, 1
  %75 = icmp ne i32 %74, 0
  %76 = load i32, ptr getelementptr inbounds nuw (i8, ptr @darktable, i64 3204), align 4
  %77 = icmp ne i32 %76, 0
  %or.cond = select i1 %75, i1 %77, i1 false
  br i1 %or.cond, label %78, label %82

78:                                               ; preds = %68
  %79 = load i32, ptr getelementptr inbounds nuw (i8, ptr @darktable, i64 8), align 8, !tbaa !59
  %80 = and i32 %79, 1048576
  %.not20 = icmp eq i32 %80, 0
  br i1 %.not20, label %82, label %81

81:                                               ; preds = %78
  call void (ptr, ...) @dt_print_ext(ptr noundef nonnull @.str.21, ptr noundef nonnull @.str.22, ptr noundef nonnull @.str.3, i32 noundef 176, ptr noundef nonnull @__FUNCTION__.menuitem_update_preset) #19
  br label %82

82:                                               ; preds = %78, %81, %68
  %83 = load ptr, ptr getelementptr inbounds nuw (i8, ptr @darktable, i64 96), align 8, !tbaa !82
  %84 = load ptr, ptr %1, align 8, !tbaa !65
  %85 = call noalias ptr @g_strdup(ptr noundef %84) #19
  call void (ptr, i32, ...) @dt_control_signal_raise(ptr noundef %83, i32 noundef 18, ptr noundef %85) #19
  call void @llvm.lifetime.end.p0(i64 8, ptr nonnull %3) #19
  br label %86

86:                                               ; preds = %82, %7
  ret void
}